target datalayout = "e-m:e-p270:32:32-p271:32:32-p272:64:64-i64:64-i128:128-f80:128-n8:16:32:64-S128"
target triple = "x86_64-pc-linux-gnu"

%struct.AVProbeData = type { ptr, ptr, i32, ptr }

@.str.2 = private unnamed_addr constant [5 x i8] c"1bit\00", align 1

; Function Attrs: alwaysinline nounwind willreturn memory(none) uwtable
define internal i32 @av_bswap32(i32 noundef %0) #3 {
  %2 = alloca i32, align 4
  store i32 %0, ptr %2, align 4, !tbaa !35
  %3 = load i32, ptr %2, align 4, !tbaa !35
  %4 = shl i32 %3, 8
  %5 = and i32 %4, 65280
  %6 = load i32, ptr %2, align 4, !tbaa !35
  %7 = lshr i32 %6, 8
  %8 = and i32 %7, 255
  %9 = or i32 %5, %8
  %10 = shl i32 %9, 16
  %11 = load i32, ptr %2, align 4, !tbaa !35
  %12 = lshr i32 %11, 16
  %13 = shl i32 %12, 8
  %14 = and i32 %13, 65280
  %15 = load i32, ptr %2, align 4, !tbaa !35
  %16 = lshr i32 %15, 16
  %17 = lshr i32 %16, 8
  %18 = and i32 %17, 255
  %19 = or i32 %14, %18
  %20 = or i32 %10, %19
  ret i32 %20
}

; Function Attrs: nounwind uwtable
define internal i32 @wsd_probe(ptr noundef %0) #0 {
  %2 = alloca i32, align 4
  %3 = alloca ptr, align 8
  store ptr %0, ptr %3, align 8, !tbaa !4
  %4 = load ptr, ptr %3, align 8, !tbaa !4
  %5 = getelementptr inbounds nuw %struct.AVProbeData, ptr %4, i32 0, i32 2
  %6 = load i32, ptr %5, align 8, !tbaa !9
  %7 = icmp slt i32 %6, 45
  br i1 %7, label %53, label %8

8:                                                ; preds = %1
  %9 = load ptr, ptr %3, align 8, !tbaa !4
  %10 = getelementptr inbounds nuw %struct.AVProbeData, ptr %9, i32 0, i32 1
  %11 = load ptr, ptr %10, align 8, !tbaa !13
  %12 = call i32 @memcmp(ptr noundef %11, ptr noundef @.str.2, i64 noundef 4) #5
  %13 = icmp ne i32 %12, 0
  br i1 %13, label %53, label %14

14:                                               ; preds = %8
  %15 = load ptr, ptr %3, align 8, !tbaa !4
  %16 = getelementptr inbounds nuw %struct.AVProbeData, ptr %15, i32 0, i32 1
  %17 = load ptr, ptr %16, align 8, !tbaa !13
  %18 = getelementptr inbounds i8, ptr %17, i64 36
  %19 = load i32, ptr %18, align 1, !tbaa !14
  %20 = call i32 @av_bswap32(i32 noundef %19) #6
  %21 = icmp ne i32 %20, 0
  br i1 %21, label %22, label %53

22:                                               ; preds = %14
  %23 = load ptr, ptr %3, align 8, !tbaa !4
  %24 = getelementptr inbounds nuw %struct.AVProbeData, ptr %23, i32 0, i32 1
  %25 = load ptr, ptr %24, align 8, !tbaa !13
  %26 = getelementptr inbounds i8, ptr %25, i64 44
  %27 = load i8, ptr %26, align 1, !tbaa !14
  %28 = icmp ne i8 %27, 0
  br i1 %28, label %29, label %53

29:                                               ; preds = %22
  %30 = load ptr, ptr %3, align 8, !tbaa !4
  %31 = getelementptr inbounds nuw %struct.AVProbeData, ptr %30, i32 0, i32 1
  %32 = load ptr, ptr %31, align 8, !tbaa !13
  %33 = getelementptr inbounds i8, ptr %32, i64 0
  %34 = load i8, ptr %33, align 1, !tbaa !14
  %35 = zext i8 %34 to i32
  %36 = icmp sge i32 %35, 16
  br i1 %36, label %37, label %54

37:                                               ; preds = %29
  %38 = load ptr, ptr %3, align 8, !tbaa !4
  %39 = getelementptr inbounds nuw %struct.AVProbeData, ptr %38, i32 0, i32 1
  %40 = load ptr, ptr %39, align 8, !tbaa !13
  %41 = getelementptr inbounds i8, ptr %40, i64 20
  %42 = load i32, ptr %41, align 1, !tbaa !14
  %43 = call i32 @av_bswap32(i32 noundef %42) #6
  %44 = icmp ult i32 %43, 128
  br i1 %44, label %53, label %45

45:                                               ; preds = %37
  %46 = load ptr, ptr %3, align 8, !tbaa !4
  %47 = getelementptr inbounds nuw %struct.AVProbeData, ptr %46, i32 0, i32 1
  %48 = load ptr, ptr %47, align 8, !tbaa !13
  %49 = getelementptr inbounds i8, ptr %48, i64 24
  %50 = load i32, ptr %49, align 1, !tbaa !14
  %51 = call i32 @av_bswap32(i32 noundef %50) #6
  %52 = icmp ult i32 %51, 128
  br i1 %52, label %53, label %54

53:                                               ; preds = %45, %37, %22, %14, %8, %1
  store i32 0, ptr %2, align 4
  br label %55

54:                                               ; preds = %45, %29
  store i32 100, ptr %2, align 4
  br label %55

55:                                               ; preds = %54, %53
  %56 = load i32, ptr %2, align 4
  ret i32 %56
}