; Function Attrs: mustprogress nofree norecurse nounwind willreturn memory(read, inaccessiblemem: none) uwtable
define internal range(i32 0, 101) i32 @wsd_probe(ptr noundef readonly captures(none) %0) #0 {
  %2 = getelementptr inbounds nuw i8, ptr %0, i64 16
  %3 = load i32, ptr %2, align 8, !tbaa !4
  %4 = icmp slt i32 %3, 45
  br i1 %4, label %28, label %5

5:                                                ; preds = %1
  %6 = getelementptr inbounds nuw i8, ptr %0, i64 8
  %7 = load ptr, ptr %6, align 8, !tbaa !11
  %bcmp = tail call i32 @bcmp(ptr noundef nonnull dereferenceable(4) %7, ptr noundef nonnull dereferenceable(4) @.str.2, i64 4)
  %.not = icmp eq i32 %bcmp, 0
  br i1 %.not, label %8, label %28

8:                                                ; preds = %5
  %9 = getelementptr inbounds nuw i8, ptr %7, i64 36
  %10 = load i32, ptr %9, align 1, !tbaa !12
  %.not7 = icmp eq i32 %10, 0
  br i1 %.not7, label %28, label %11

11:                                               ; preds = %8
  %12 = getelementptr inbounds nuw i8, ptr %7, i64 44
  %13 = load i8, ptr %12, align 1, !tbaa !12
  %.not8 = icmp eq i8 %13, 0
  br i1 %.not8, label %28, label %14

14:                                               ; preds = %11
  %15 = load i8, ptr %7, align 1, !tbaa !12
  %16 = icmp ugt i8 %15, 15
  br i1 %16, label %17, label %27

17:                                               ; preds = %14
  %18 = getelementptr inbounds nuw i8, ptr %7, i64 20
  %19 = load i32, ptr %18, align 1, !tbaa !12
  %20 = tail call i32 @llvm.bswap.i32(i32 %19)
  %21 = icmp ult i32 %20, 128
  br i1 %21, label %28, label %22

22:                                               ; preds = %17
  %23 = getelementptr inbounds nuw i8, ptr %7, i64 24
  %24 = load i32, ptr %23, align 1, !tbaa !12
  %25 = tail call i32 @llvm.bswap.i32(i32 %24)
  %26 = icmp ult i32 %25, 128
  br i1 %26, label %28, label %27

27:                                               ; preds = %22, %14
  br label %28

28:                                               ; preds = %1, %5, %8, %11, %17, %22, %27
  %.0 = phi i32 [ 100, %27 ], [ 0, %22 ], [ 0, %17 ], [ 0, %11 ], [ 0, %8 ], [ 0, %5 ], [ 0, %1 ]
  ret i32 %.0
}